; ModuleID = '19/788.c'
source_filename = "19/788.c"
target datalayout = "e-m:e-p270:32:32-p271:32:32-p272:64:64-i64:64-f80:128-n8:16:32:64-S128"
target triple = "x86_64-pc-linux-gnu"

@.str = private unnamed_addr constant [4 x i8] c"%s \00", align 1
@.str.1 = private unnamed_addr constant [3 x i8] c"%s\00", align 1
@.str.2 = private unnamed_addr constant [2 x i8] c" \00", align 1

; Function Attrs: noinline nounwind uwtable
define dso_local void @main() #0 {
  %1 = alloca i8*, align 8
  %2 = alloca i8*, align 8
  %3 = alloca i8*, align 8
  %4 = alloca i8*, align 8
  %5 = alloca i8*, align 8
  %6 = alloca i8*, align 8
  %7 = alloca i32, align 4
  %8 = alloca i32, align 4
  %9 = alloca i32, align 4
  %10 = alloca i32, align 4
  %11 = alloca i32, align 4
  %12 = alloca i32, align 4
  %13 = alloca i32, align 4
  %14 = alloca i32, align 4
  %15 = alloca i32, align 4
  %16 = call noalias i8* @malloc(i64 200) #4
  store i8* %16, i8** %1, align 8
  %17 = call noalias i8* @malloc(i64 100) #4
  store i8* %17, i8** %2, align 8
  %18 = call noalias i8* @malloc(i64 100) #4
  store i8* %18, i8** %3, align 8
  %19 = call noalias i8* @malloc(i64 100) #4
  store i8* %19, i8** %4, align 8
  %20 = call noalias i8* @malloc(i64 100) #4
  store i8* %20, i8** %5, align 8
  %21 = call noalias i8* @malloc(i64 300) #4
  store i8* %21, i8** %6, align 8
  %22 = load i8*, i8** %1, align 8
  %23 = call i32 (i8*, ...) bitcast (i32 (...)* @gets to i32 (i8*, ...)*)(i8* %22)
  %24 = load i8*, i8** %2, align 8
  %25 = call i32 (i8*, ...) bitcast (i32 (...)* @gets to i32 (i8*, ...)*)(i8* %24)
  %26 = load i8*, i8** %3, align 8
  %27 = call i32 (i8*, ...) bitcast (i32 (...)* @gets to i32 (i8*, ...)*)(i8* %26)
  %28 = load i8*, i8** %1, align 8
  %29 = call i64 @strlen(i8* %28) #5
  %30 = trunc i64 %29 to i32
  store i32 %30, i32* %14, align 4
  store i32 0, i32* %15, align 4
  store i32 0, i32* %7, align 4
  store i32 0, i32* %9, align 4
  br label %31

31:                                               ; preds = %132, %0
  %32 = load i32, i32* %7, align 4
  %33 = load i32, i32* %14, align 4
  %34 = icmp slt i32 %32, %33
  br i1 %34, label %35, label %135

35:                                               ; preds = %31
  store i32 0, i32* %10, align 4
  %36 = load i8*, i8** %1, align 8
  %37 = load i32, i32* %7, align 4
  %38 = sext i32 %37 to i64
  %39 = getelementptr inbounds i8, i8* %36, i64 %38
  %40 = load i8, i8* %39, align 1
  %41 = sext i8 %40 to i32
  %42 = icmp eq i32 %41, 32
  br i1 %42, label %46, label %43

43:                                               ; preds = %35
  %44 = load i32, i32* %7, align 4
  %45 = icmp eq i32 %44, 0
  br i1 %45, label %46, label %55

46:                                               ; preds = %43, %35
  store i32 1, i32* %10, align 4
  %47 = load i32, i32* %7, align 4
  %48 = icmp ne i32 %47, 0
  br i1 %48, label %49, label %52

49:                                               ; preds = %46
  %50 = load i32, i32* %7, align 4
  %51 = add nsw i32 %50, 1
  store i32 %51, i32* %12, align 4
  br label %54

52:                                               ; preds = %46
  %53 = load i32, i32* %7, align 4
  store i32 %53, i32* %12, align 4
  br label %54

54:                                               ; preds = %52, %49
  br label %55

55:                                               ; preds = %54, %43
  %56 = load i32, i32* %10, align 4
  %57 = icmp eq i32 %56, 1
  br i1 %57, label %58, label %100

58:                                               ; preds = %55
  %59 = load i32, i32* %12, align 4
  store i32 %59, i32* %7, align 4
  store i32 0, i32* %8, align 4
  br label %60

60:                                               ; preds = %88, %58
  %61 = load i8*, i8** %1, align 8
  %62 = load i32, i32* %7, align 4
  %63 = sext i32 %62 to i64
  %64 = getelementptr inbounds i8, i8* %61, i64 %63
  %65 = load i8, i8* %64, align 1
  %66 = sext i8 %65 to i32
  %67 = icmp ne i32 %66, 32
  br i1 %67, label %68, label %76

68:                                               ; preds = %60
  %69 = load i8*, i8** %1, align 8
  %70 = load i32, i32* %7, align 4
  %71 = sext i32 %70 to i64
  %72 = getelementptr inbounds i8, i8* %69, i64 %71
  %73 = load i8, i8* %72, align 1
  %74 = sext i8 %73 to i32
  %75 = icmp ne i32 %74, 0
  br label %76

76:                                               ; preds = %68, %60
  %77 = phi i1 [ false, %60 ], [ %75, %68 ]
  br i1 %77, label %78, label %93

78:                                               ; preds = %76
  %79 = load i8*, i8** %1, align 8
  %80 = load i32, i32* %7, align 4
  %81 = sext i32 %80 to i64
  %82 = getelementptr inbounds i8, i8* %79, i64 %81
  %83 = load i8, i8* %82, align 1
  %84 = load i8*, i8** %4, align 8
  %85 = load i32, i32* %8, align 4
  %86 = sext i32 %85 to i64
  %87 = getelementptr inbounds i8, i8* %84, i64 %86
  store i8 %83, i8* %87, align 1
  br label %88

88:                                               ; preds = %78
  %89 = load i32, i32* %7, align 4
  %90 = add nsw i32 %89, 1
  store i32 %90, i32* %7, align 4
  %91 = load i32, i32* %8, align 4
  %92 = add nsw i32 %91, 1
  store i32 %92, i32* %8, align 4
  br label %60

93:                                               ; preds = %76
  %94 = load i32, i32* %7, align 4
  %95 = sub nsw i32 %94, 1
  store i32 %95, i32* %7, align 4
  %96 = load i8*, i8** %4, align 8
  %97 = load i32, i32* %8, align 4
  %98 = sext i32 %97 to i64
  %99 = getelementptr inbounds i8, i8* %96, i64 %98
  store i8 0, i8* %99, align 1
  br label %100

100:                                              ; preds = %93, %55
  %101 = load i32, i32* %7, align 4
  %102 = add nsw i32 %101, 1
  store i32 %102, i32* %13, align 4
  %103 = load i8*, i8** %4, align 8
  %104 = load i8*, i8** %2, align 8
  %105 = call i32 @strcmp(i8* %103, i8* %104) #5
  %106 = icmp eq i32 %105, 0
  br i1 %106, label %107, label %118

107:                                              ; preds = %100
  %108 = load i32, i32* %13, align 4
  %109 = load i32, i32* %14, align 4
  %110 = icmp ne i32 %108, %109
  br i1 %110, label %111, label %114

111:                                              ; preds = %107
  %112 = load i8*, i8** %3, align 8
  %113 = call i32 (i8*, ...) @printf(i8* getelementptr inbounds ([4 x i8], [4 x i8]* @.str, i64 0, i64 0), i8* %112)
  br label %117

114:                                              ; preds = %107
  %115 = load i8*, i8** %3, align 8
  %116 = call i32 (i8*, ...) @printf(i8* getelementptr inbounds ([3 x i8], [3 x i8]* @.str.1, i64 0, i64 0), i8* %115)
  br label %117

117:                                              ; preds = %114, %111
  store i32 1, i32* %15, align 4
  br label %131

118:                                              ; preds = %100
  %119 = load i32, i32* %13, align 4
  %120 = load i32, i32* %14, align 4
  %121 = icmp ne i32 %119, %120
  br i1 %121, label %122, label %125

122:                                              ; preds = %118
  %123 = load i8*, i8** %4, align 8
  %124 = call i32 (i8*, ...) @printf(i8* getelementptr inbounds ([4 x i8], [4 x i8]* @.str, i64 0, i64 0), i8* %123)
  br label %128

125:                                              ; preds = %118
  %126 = load i8*, i8** %4, align 8
  %127 = call i32 (i8*, ...) @printf(i8* getelementptr inbounds ([3 x i8], [3 x i8]* @.str.1, i64 0, i64 0), i8* %126)
  br label %128

128:                                              ; preds = %125, %122
  %129 = load i8*, i8** %4, align 8
  %130 = call i8* @strcpy(i8* %129, i8* getelementptr inbounds ([2 x i8], [2 x i8]* @.str.2, i64 0, i64 0)) #4
  br label %131

131:                                              ; preds = %128, %117
  br label %132

132:                                              ; preds = %131
  %133 = load i32, i32* %7, align 4
  %134 = add nsw i32 %133, 1
  store i32 %134, i32* %7, align 4
  br label %31

135:                                              ; preds = %31
  ret void
}

; Function Attrs: nounwind
declare dso_local noalias i8* @malloc(i64) #1

declare dso_local i32 @gets(...) #2

; Function Attrs: nounwind readonly
declare dso_local i64 @strlen(i8*) #3

; Function Attrs: nounwind readonly
declare dso_local i32 @strcmp(i8*, i8*) #3

declare dso_local i32 @printf(i8*, ...) #2

; Function Attrs: nounwind
declare dso_local i8* @strcpy(i8*, i8*) #1


!llvm.module.flags = !{!0}
!llvm.ident = !{!1}

!0 = !{i32 1, !"wchar_size", i32 4}
!1 = !{!"clang version 10.0.0-4ubuntu1 "}
